target datalayout = "e-m:e-p270:32:32-p271:32:32-p272:64:64-i64:64-i128:128-f80:128-n8:16:32:64-S128"
target triple = "x86_64-pc-linux-gnu"

@_ZN19OpenColorIO_v2_5dev13ViewTransformD1Ev = unnamed_addr alias void (ptr), ptr @_ZN19OpenColorIO_v2_5dev13ViewTransformD2Ev

; Function Attrs: mustprogress nounwind uwtable
define void @_ZN19OpenColorIO_v2_5dev13ViewTransform7deleterEPS0_(ptr noundef %0) #3 align 2 {
  %2 = alloca ptr, align 8
  store ptr %0, ptr %2, align 8, !tbaa !7
  %3 = load ptr, ptr %2, align 8, !tbaa !7
  %4 = icmp eq ptr %3, null
  br i1 %4, label %6, label %5

5:                                                ; preds = %1
  call void @_ZN19OpenColorIO_v2_5dev13ViewTransformD1Ev(ptr noundef nonnull align 8 dereferenceable(8) %3) #19
  call void @_ZdlPvm(ptr noundef %3, i64 noundef 8) #18
  br label %6

6:                                                ; preds = %5, %1
  ret void
}